target datalayout = "e-m:e-p270:32:32-p271:32:32-p272:64:64-i64:64-i128:128-f80:128-n8:16:32:64-S128"
target triple = "x86_64-pc-linux-gnu"

%struct._zval_struct = type { %union._zend_value, %union.anon, %union.anon.2 }
%union._zend_value = type { i64 }
%union.anon = type { i32 }
%union.anon.2 = type { i32 }
%struct._zend_array = type { %struct._zend_refcounted_h, %union.anon.4, i32, %union.anon.6, i32, i32, i32, i32, i64, ptr }
%struct._zend_refcounted_h = type { i32, %union.anon.3 }
%union.anon.3 = type { i32 }
%union.anon.4 = type { i32 }
%union.anon.6 = type { ptr }
%struct._zend_execute_data = type { ptr, ptr, ptr, ptr, %struct._zval_struct, ptr, ptr, ptr, ptr }
%struct._zend_reference = type { %struct._zend_refcounted_h, %struct._zval_struct, %union.zend_property_info_source_list }
%union.zend_property_info_source_list = type { ptr }
%struct.anon.0 = type { i8, i8, %union.anon.1 }
%union.anon.1 = type { i16 }
%struct._php_random_algo_with_state = type { ptr, ptr }

; Function Attrs: inlinehint nounwind uwtable
define internal { ptr, ptr } @php_random_default_engine() #6 {
  %1 = alloca %struct._php_random_algo_with_state, align 8
  %2 = call ptr @php_random_default_algo()
  %3 = getelementptr inbounds nuw %struct._php_random_algo_with_state, ptr %1, i32 0, i32 0
  store ptr %2, ptr %3, align 8, !tbaa !127
  %4 = call ptr @php_random_default_status()
  %5 = getelementptr inbounds nuw %struct._php_random_algo_with_state, ptr %1, i32 0, i32 1
  store ptr %4, ptr %5, align 8, !tbaa !131
  %6 = load { ptr, ptr }, ptr %1, align 8
  ret { ptr, ptr } %6
}

; Function Attrs: alwaysinline nounwind uwtable
define internal zeroext i1 @zend_parse_arg_array(ptr noundef %0, ptr noundef %1, i1 noundef zeroext %2, i1 noundef zeroext %3) #5 {
  %5 = alloca i1, align 1
  %6 = alloca ptr, align 8
  %7 = alloca ptr, align 8
  %8 = alloca i8, align 1
  %9 = alloca i8, align 1
  store ptr %0, ptr %6, align 8, !tbaa !13
  store ptr %1, ptr %7, align 8, !tbaa !31
  %10 = zext i1 %2 to i8
  store i8 %10, ptr %8, align 1, !tbaa !20
  %11 = zext i1 %3 to i8
  store i8 %11, ptr %9, align 1, !tbaa !20
  %12 = load ptr, ptr %6, align 8, !tbaa !13
  %13 = call zeroext i8 @zval_get_type(ptr noundef %12)
  %14 = zext i8 %13 to i32
  %15 = icmp eq i32 %14, 7
  %16 = xor i1 %15, true
  %17 = xor i1 %16, true
  %18 = zext i1 %17 to i32
  %19 = sext i32 %18 to i64
  %20 = call i64 @llvm.expect.i64(i64 %19, i64 1)
  %21 = icmp ne i64 %20, 0
  br i1 %21, label %36, label %22

22:                                               ; preds = %4
  %23 = load i8, ptr %9, align 1, !tbaa !20, !range !22, !noundef !23
  %24 = trunc i8 %23 to i1
  br i1 %24, label %25, label %39

25:                                               ; preds = %22
  %26 = load ptr, ptr %6, align 8, !tbaa !13
  %27 = call zeroext i8 @zval_get_type(ptr noundef %26)
  %28 = zext i8 %27 to i32
  %29 = icmp eq i32 %28, 8
  %30 = xor i1 %29, true
  %31 = xor i1 %30, true
  %32 = zext i1 %31 to i32
  %33 = sext i32 %32 to i64
  %34 = call i64 @llvm.expect.i64(i64 %33, i64 1)
  %35 = icmp ne i64 %34, 0
  br i1 %35, label %36, label %39

36:                                               ; preds = %25, %4
  %37 = load ptr, ptr %6, align 8, !tbaa !13
  %38 = load ptr, ptr %7, align 8, !tbaa !31
  store ptr %37, ptr %38, align 8, !tbaa !13
  br label %57

39:                                               ; preds = %25, %22
  %40 = load i8, ptr %8, align 1, !tbaa !20, !range !22, !noundef !23
  %41 = trunc i8 %40 to i1
  br i1 %41, label %42, label %55

42:                                               ; preds = %39
  %43 = load ptr, ptr %6, align 8, !tbaa !13
  %44 = call zeroext i8 @zval_get_type(ptr noundef %43)
  %45 = zext i8 %44 to i32
  %46 = icmp eq i32 %45, 1
  %47 = xor i1 %46, true
  %48 = xor i1 %47, true
  %49 = zext i1 %48 to i32
  %50 = sext i32 %49 to i64
  %51 = call i64 @llvm.expect.i64(i64 %50, i64 1)
  %52 = icmp ne i64 %51, 0
  br i1 %52, label %53, label %55

53:                                               ; preds = %42
  %54 = load ptr, ptr %7, align 8, !tbaa !31
  store ptr null, ptr %54, align 8, !tbaa !13
  br label %56

55:                                               ; preds = %42, %39
  store i1 false, ptr %5, align 1
  br label %58

56:                                               ; preds = %53
  br label %57

57:                                               ; preds = %56, %36
  store i1 true, ptr %5, align 1
  br label %58

58:                                               ; preds = %57, %55
  %59 = load i1, ptr %5, align 1
  ret i1 %59
}

; Function Attrs: alwaysinline nounwind uwtable
define internal void @zend_gc_try_delref(ptr noundef %0) #5 {
  %2 = alloca ptr, align 8
  store ptr %0, ptr %2, align 8, !tbaa !27
  %3 = load ptr, ptr %2, align 8, !tbaa !27
  %4 = getelementptr inbounds nuw %struct._zend_refcounted_h, ptr %3, i32 0, i32 1
  %5 = load i32, ptr %4, align 4, !tbaa !17
  %6 = and i32 %5, 64
  %7 = icmp ne i32 %6, 0
  br i1 %7, label %15, label %8

8:                                                ; preds = %1
  br label %9

9:                                                ; preds = %8
  br label %10

10:                                               ; preds = %9
  %11 = load ptr, ptr %2, align 8, !tbaa !27
  %12 = getelementptr inbounds nuw %struct._zend_refcounted_h, ptr %11, i32 0, i32 0
  %13 = load i32, ptr %12, align 4, !tbaa !29
  %14 = add i32 %13, -1
  store i32 %14, ptr %12, align 4, !tbaa !29
  br label %15

15:                                               ; preds = %10, %1
  ret void
}

; Function Attrs: alwaysinline nounwind uwtable
define internal i32 @zend_gc_refcount(ptr noundef %0) #5 {
  %2 = alloca ptr, align 8
  store ptr %0, ptr %2, align 8, !tbaa !27
  %3 = load ptr, ptr %2, align 8, !tbaa !27
  %4 = getelementptr inbounds nuw %struct._zend_refcounted_h, ptr %3, i32 0, i32 0
  %5 = load i32, ptr %4, align 4, !tbaa !29
  ret i32 %5
}

; Function Attrs: alwaysinline nounwind uwtable
define internal zeroext i8 @zval_get_type(ptr noundef %0) #5 {
  %2 = alloca ptr, align 8
  store ptr %0, ptr %2, align 8, !tbaa !13
  %3 = load ptr, ptr %2, align 8, !tbaa !13
  %4 = getelementptr inbounds nuw %struct._zval_struct, ptr %3, i32 0, i32 1
  %5 = getelementptr inbounds nuw %struct.anon.0, ptr %4, i32 0, i32 0
  %6 = load i8, ptr %5, align 8, !tbaa !17
  ret i8 %6
}

; Function Attrs: nounwind uwtable
define hidden void @zif_shuffle(ptr noundef %0, ptr noundef %1) #0 {
  %3 = alloca ptr, align 8
  %4 = alloca ptr, align 8
  %5 = alloca ptr, align 8
  %6 = alloca i32, align 4
  %7 = alloca i32, align 4
  %8 = alloca i32, align 4
  %9 = alloca i32, align 4
  %10 = alloca i32, align 4
  %11 = alloca ptr, align 8
  %12 = alloca ptr, align 8
  %13 = alloca i32, align 4
  %14 = alloca ptr, align 8
  %15 = alloca i8, align 1
  %16 = alloca i8, align 1
  %17 = alloca i32, align 4
  %18 = alloca ptr, align 8
  %19 = alloca ptr, align 8
  %20 = alloca ptr, align 8
  %21 = alloca ptr, align 8
  %22 = alloca ptr, align 8
  %23 = alloca i32, align 4
  %24 = alloca %struct._php_random_algo_with_state, align 8
  store ptr %0, ptr %3, align 8, !tbaa !11
  store ptr %1, ptr %4, align 8, !tbaa !13
  call void @llvm.lifetime.start.p0(i64 8, ptr %5) #17
  br label %25

25:                                               ; preds = %2
  call void @llvm.lifetime.start.p0(i64 4, ptr %6) #17
  store i32 0, ptr %6, align 4, !tbaa !4
  call void @llvm.lifetime.start.p0(i64 4, ptr %7) #17
  store i32 1, ptr %7, align 4, !tbaa !4
  call void @llvm.lifetime.start.p0(i64 4, ptr %8) #17
  store i32 1, ptr %8, align 4, !tbaa !4
  call void @llvm.lifetime.start.p0(i64 4, ptr %9) #17
  %26 = load ptr, ptr %3, align 8, !tbaa !11
  %27 = getelementptr inbounds nuw %struct._zend_execute_data, ptr %26, i32 0, i32 4
  %28 = getelementptr inbounds nuw %struct._zval_struct, ptr %27, i32 0, i32 2
  %29 = load i32, ptr %28, align 4, !tbaa !17
  store i32 %29, ptr %9, align 4, !tbaa !4
  call void @llvm.lifetime.start.p0(i64 4, ptr %10) #17
  store i32 0, ptr %10, align 4, !tbaa !4
  call void @llvm.lifetime.start.p0(i64 8, ptr %11) #17
  call void @llvm.lifetime.start.p0(i64 8, ptr %12) #17
  store ptr null, ptr %12, align 8, !tbaa !13
  call void @llvm.lifetime.start.p0(i64 4, ptr %13) #17
  store i32 0, ptr %13, align 4, !tbaa !4
  call void @llvm.lifetime.start.p0(i64 8, ptr %14) #17
  store ptr null, ptr %14, align 8, !tbaa !18
  call void @llvm.lifetime.start.p0(i64 1, ptr %15) #17
  store i8 0, ptr %15, align 1, !tbaa !20
  call void @llvm.lifetime.start.p0(i64 1, ptr %16) #17
  store i8 0, ptr %16, align 1, !tbaa !20
  call void @llvm.lifetime.start.p0(i64 4, ptr %17) #17
  store i32 0, ptr %17, align 4, !tbaa !4
  br label %30

30:                                               ; preds = %25
  %31 = load i32, ptr %9, align 4, !tbaa !4
  %32 = load i32, ptr %7, align 4, !tbaa !4
  %33 = icmp ult i32 %31, %32
  %34 = xor i1 %33, true
  %35 = xor i1 %34, true
  %36 = zext i1 %35 to i32
  %37 = sext i32 %36 to i64
  %38 = call i64 @llvm.expect.i64(i64 %37, i64 0)
  %39 = icmp ne i64 %38, 0
  br i1 %39, label %50, label %40

40:                                               ; preds = %30
  %41 = load i32, ptr %9, align 4, !tbaa !4
  %42 = load i32, ptr %8, align 4, !tbaa !4
  %43 = icmp ugt i32 %41, %42
  %44 = xor i1 %43, true
  %45 = xor i1 %44, true
  %46 = zext i1 %45 to i32
  %47 = sext i32 %46 to i64
  %48 = call i64 @llvm.expect.i64(i64 %47, i64 0)
  %49 = icmp ne i64 %48, 0
  br i1 %49, label %50, label %53

50:                                               ; preds = %40, %30
  %51 = load i32, ptr %7, align 4, !tbaa !4
  %52 = load i32, ptr %8, align 4, !tbaa !4
  call void @zend_wrong_parameters_count_error(i32 noundef %51, i32 noundef %52)
  store i32 1, ptr %17, align 4, !tbaa !4
  br label %174

53:                                               ; preds = %40
  %54 = load ptr, ptr %3, align 8, !tbaa !11
  %55 = getelementptr inbounds %struct._zval_struct, ptr %54, i64 4
  store ptr %55, ptr %11, align 8, !tbaa !13
  %56 = load i32, ptr %10, align 4, !tbaa !4
  %57 = add i32 %56, 1
  store i32 %57, ptr %10, align 4, !tbaa !4
  %58 = load i32, ptr %10, align 4, !tbaa !4
  %59 = load i32, ptr %7, align 4, !tbaa !4
  %60 = icmp ule i32 %58, %59
  br i1 %60, label %66, label %61

61:                                               ; preds = %53
  %62 = load i8, ptr %16, align 1, !tbaa !20, !range !22, !noundef !23
  %63 = trunc i8 %62 to i1
  %64 = zext i1 %63 to i32
  %65 = icmp eq i32 %64, 1
  br label %66

66:                                               ; preds = %61, %53
  %67 = phi i1 [ true, %53 ], [ %65, %61 ]
  call void @llvm.assume(i1 %67)
  %68 = load i32, ptr %10, align 4, !tbaa !4
  %69 = load i32, ptr %7, align 4, !tbaa !4
  %70 = icmp ugt i32 %68, %69
  br i1 %70, label %76, label %71

71:                                               ; preds = %66
  %72 = load i8, ptr %16, align 1, !tbaa !20, !range !22, !noundef !23
  %73 = trunc i8 %72 to i1
  %74 = zext i1 %73 to i32
  %75 = icmp eq i32 %74, 0
  br label %76

76:                                               ; preds = %71, %66
  %77 = phi i1 [ true, %66 ], [ %75, %71 ]
  call void @llvm.assume(i1 %77)
  %78 = load i8, ptr %16, align 1, !tbaa !20, !range !22, !noundef !23
  %79 = trunc i8 %78 to i1
  br i1 %79, label %80, label %92

80:                                               ; preds = %76
  %81 = load i32, ptr %10, align 4, !tbaa !4
  %82 = load i32, ptr %9, align 4, !tbaa !4
  %83 = icmp ugt i32 %81, %82
  %84 = xor i1 %83, true
  %85 = xor i1 %84, true
  %86 = zext i1 %85 to i32
  %87 = sext i32 %86 to i64
  %88 = call i64 @llvm.expect.i64(i64 %87, i64 0)
  %89 = icmp ne i64 %88, 0
  br i1 %89, label %90, label %91

90:                                               ; preds = %80
  br label %174

91:                                               ; preds = %80
  br label %92

92:                                               ; preds = %91, %76
  %93 = load ptr, ptr %11, align 8, !tbaa !13
  %94 = getelementptr inbounds nuw %struct._zval_struct, ptr %93, i32 1
  store ptr %94, ptr %11, align 8, !tbaa !13
  %95 = load ptr, ptr %11, align 8, !tbaa !13
  store ptr %95, ptr %12, align 8, !tbaa !13
  %96 = load ptr, ptr %12, align 8, !tbaa !13
  %97 = call zeroext i8 @zval_get_type(ptr noundef %96)
  %98 = zext i8 %97 to i32
  %99 = icmp eq i32 %98, 10
  %100 = xor i1 %99, true
  %101 = xor i1 %100, true
  %102 = zext i1 %101 to i32
  %103 = sext i32 %102 to i64
  %104 = call i64 @llvm.expect.i64(i64 %103, i64 1)
  %105 = icmp ne i64 %104, 0
  br i1 %105, label %106, label %111

106:                                              ; preds = %92
  %107 = load ptr, ptr %12, align 8, !tbaa !13
  %108 = getelementptr inbounds nuw %struct._zval_struct, ptr %107, i32 0, i32 0
  %109 = load ptr, ptr %108, align 8, !tbaa !17
  %110 = getelementptr inbounds nuw %struct._zend_reference, ptr %109, i32 0, i32 1
  store ptr %110, ptr %12, align 8, !tbaa !13
  br label %111

111:                                              ; preds = %106, %92
  br label %112

112:                                              ; preds = %111
  call void @llvm.lifetime.start.p0(i64 8, ptr %18) #17
  %113 = load ptr, ptr %12, align 8, !tbaa !13
  store ptr %113, ptr %18, align 8, !tbaa !13
  %114 = load ptr, ptr %18, align 8, !tbaa !13
  %115 = call zeroext i8 @zval_get_type(ptr noundef %114)
  %116 = zext i8 %115 to i32
  %117 = icmp eq i32 %116, 7
  br i1 %117, label %118, label %151

118:                                              ; preds = %112
  br label %119

119:                                              ; preds = %118
  call void @llvm.lifetime.start.p0(i64 8, ptr %19) #17
  %120 = load ptr, ptr %18, align 8, !tbaa !13
  store ptr %120, ptr %19, align 8, !tbaa !13
  call void @llvm.lifetime.start.p0(i64 8, ptr %20) #17
  %121 = load ptr, ptr %19, align 8, !tbaa !13
  %122 = getelementptr inbounds nuw %struct._zval_struct, ptr %121, i32 0, i32 0
  %123 = load ptr, ptr %122, align 8, !tbaa !17
  store ptr %123, ptr %20, align 8, !tbaa !24
  %124 = load ptr, ptr %20, align 8, !tbaa !24
  %125 = getelementptr inbounds nuw %struct._zend_array, ptr %124, i32 0, i32 0
  %126 = call i32 @zend_gc_refcount(ptr noundef %125)
  %127 = icmp ugt i32 %126, 1
  %128 = xor i1 %127, true
  %129 = xor i1 %128, true
  %130 = zext i1 %129 to i32
  %131 = sext i32 %130 to i64
  %132 = call i64 @llvm.expect.i64(i64 %131, i64 0)
  %133 = icmp ne i64 %132, 0
  br i1 %133, label %134, label %148

134:                                              ; preds = %119
  br label %135

135:                                              ; preds = %134
  call void @llvm.lifetime.start.p0(i64 8, ptr %21) #17
  %136 = load ptr, ptr %20, align 8, !tbaa !24
  %137 = call ptr @zend_array_dup(ptr noundef %136)
  store ptr %137, ptr %21, align 8, !tbaa !24
  call void @llvm.lifetime.start.p0(i64 8, ptr %22) #17
  %138 = load ptr, ptr %19, align 8, !tbaa !13
  store ptr %138, ptr %22, align 8, !tbaa !13
  %139 = load ptr, ptr %21, align 8, !tbaa !24
  %140 = load ptr, ptr %22, align 8, !tbaa !13
  %141 = getelementptr inbounds nuw %struct._zval_struct, ptr %140, i32 0, i32 0
  store ptr %139, ptr %141, align 8, !tbaa !17
  %142 = load ptr, ptr %22, align 8, !tbaa !13
  %143 = getelementptr inbounds nuw %struct._zval_struct, ptr %142, i32 0, i32 1
  store i32 775, ptr %143, align 8, !tbaa !17
  call void @llvm.lifetime.end.p0(i64 8, ptr %22) #17
  call void @llvm.lifetime.end.p0(i64 8, ptr %21) #17
  br label %144

144:                                              ; preds = %135
  br label %145

145:                                              ; preds = %144
  %146 = load ptr, ptr %20, align 8, !tbaa !24
  %147 = getelementptr inbounds nuw %struct._zend_array, ptr %146, i32 0, i32 0
  call void @zend_gc_try_delref(ptr noundef %147)
  br label %148

148:                                              ; preds = %145, %119
  call void @llvm.lifetime.end.p0(i64 8, ptr %20) #17
  call void @llvm.lifetime.end.p0(i64 8, ptr %19) #17
  br label %149

149:                                              ; preds = %148
  br label %150

150:                                              ; preds = %149
  br label %151

151:                                              ; preds = %150, %112
  call void @llvm.lifetime.end.p0(i64 8, ptr %18) #17
  br label %152

152:                                              ; preds = %151
  br label %153

153:                                              ; preds = %152
  %154 = load ptr, ptr %12, align 8, !tbaa !13
  %155 = call zeroext i1 @zend_parse_arg_array(ptr noundef %154, ptr noundef %5, i1 noundef zeroext false, i1 noundef zeroext false)
  %156 = xor i1 %155, true
  %157 = xor i1 %156, true
  %158 = xor i1 %157, true
  %159 = zext i1 %158 to i32
  %160 = sext i32 %159 to i64
  %161 = call i64 @llvm.expect.i64(i64 %160, i64 0)
  %162 = icmp ne i64 %161, 0
  br i1 %162, label %163, label %164

163:                                              ; preds = %153
  store i32 6, ptr %13, align 4, !tbaa !4
  store i32 9, ptr %17, align 4, !tbaa !4
  br label %174

164:                                              ; preds = %153
  %165 = load i32, ptr %10, align 4, !tbaa !4
  %166 = load i32, ptr %8, align 4, !tbaa !4
  %167 = icmp eq i32 %165, %166
  br i1 %167, label %171, label %168

168:                                              ; preds = %164
  %169 = load i32, ptr %8, align 4, !tbaa !4
  %170 = icmp eq i32 %169, -1
  br label %171

171:                                              ; preds = %168, %164
  %172 = phi i1 [ true, %164 ], [ %170, %168 ]
  call void @llvm.assume(i1 %172)
  br label %173

173:                                              ; preds = %171
  br label %174

174:                                              ; preds = %173, %163, %90, %50
  %175 = load i32, ptr %17, align 4, !tbaa !4
  %176 = icmp ne i32 %175, 0
  %177 = xor i1 %176, true
  %178 = xor i1 %177, true
  %179 = zext i1 %178 to i32
  %180 = sext i32 %179 to i64
  %181 = call i64 @llvm.expect.i64(i64 %180, i64 0)
  %182 = icmp ne i64 %181, 0
  br i1 %182, label %183, label %189

183:                                              ; preds = %174
  %184 = load i32, ptr %17, align 4, !tbaa !4
  %185 = load i32, ptr %10, align 4, !tbaa !4
  %186 = load ptr, ptr %14, align 8, !tbaa !18
  %187 = load i32, ptr %13, align 4, !tbaa !4
  %188 = load ptr, ptr %12, align 8, !tbaa !13
  call void @zend_wrong_parameter_error(i32 noundef %184, i32 noundef %185, ptr noundef %186, i32 noundef %187, ptr noundef %188)
  store i32 1, ptr %23, align 4
  br label %190

189:                                              ; preds = %174
  store i32 0, ptr %23, align 4
  br label %190

190:                                              ; preds = %189, %183
  call void @llvm.lifetime.end.p0(i64 4, ptr %17) #17
  call void @llvm.lifetime.end.p0(i64 1, ptr %16) #17
  call void @llvm.lifetime.end.p0(i64 1, ptr %15) #17
  call void @llvm.lifetime.end.p0(i64 8, ptr %14) #17
  call void @llvm.lifetime.end.p0(i64 4, ptr %13) #17
  call void @llvm.lifetime.end.p0(i64 8, ptr %12) #17
  call void @llvm.lifetime.end.p0(i64 8, ptr %11) #17
  call void @llvm.lifetime.end.p0(i64 4, ptr %10) #17
  call void @llvm.lifetime.end.p0(i64 4, ptr %9) #17
  call void @llvm.lifetime.end.p0(i64 4, ptr %8) #17
  call void @llvm.lifetime.end.p0(i64 4, ptr %7) #17
  call void @llvm.lifetime.end.p0(i64 4, ptr %6) #17
  %191 = load i32, ptr %23, align 4
  switch i32 %191, label %214 [
    i32 0, label %192
  ]

192:                                              ; preds = %190
  br label %193

193:                                              ; preds = %192
  br label %194

194:                                              ; preds = %193
  %195 = call { ptr, ptr } @php_random_default_engine()
  %196 = getelementptr inbounds nuw { ptr, ptr }, ptr %24, i32 0, i32 0
  %197 = extractvalue { ptr, ptr } %195, 0
  store ptr %197, ptr %196, align 8
  %198 = getelementptr inbounds nuw { ptr, ptr }, ptr %24, i32 0, i32 1
  %199 = extractvalue { ptr, ptr } %195, 1
  store ptr %199, ptr %198, align 8
  %200 = load ptr, ptr %5, align 8, !tbaa !13
  %201 = getelementptr inbounds nuw { ptr, ptr }, ptr %24, i32 0, i32 0
  %202 = load ptr, ptr %201, align 8
  %203 = getelementptr inbounds nuw { ptr, ptr }, ptr %24, i32 0, i32 1
  %204 = load ptr, ptr %203, align 8
  %205 = call zeroext i1 @php_array_data_shuffle(ptr %202, ptr %204, ptr noundef %200)
  br label %206

206:                                              ; preds = %194
  br label %207

207:                                              ; preds = %206
  %208 = load ptr, ptr %4, align 8, !tbaa !13
  %209 = getelementptr inbounds nuw %struct._zval_struct, ptr %208, i32 0, i32 1
  store i32 3, ptr %209, align 8, !tbaa !17
  br label %210

210:                                              ; preds = %207
  br label %211

211:                                              ; preds = %210
  store i32 1, ptr %23, align 4
  br label %214

212:                                              ; No predecessors!
  br label %213

213:                                              ; preds = %212
  store i32 0, ptr %23, align 4
  br label %214

214:                                              ; preds = %213, %211, %190
  call void @llvm.lifetime.end.p0(i64 8, ptr %5) #17
  %215 = load i32, ptr %23, align 4
  switch i32 %215, label %217 [
    i32 0, label %216
    i32 1, label %216
  ]

216:                                              ; preds = %214, %214
  ret void

217:                                              ; preds = %214
  unreachable
}