; Function Attrs: nounwind uwtable
define hidden void @zif_shuffle(ptr noundef %0, ptr noundef writeonly captures(none) %1) local_unnamed_addr #2 {
  %3 = getelementptr inbounds nuw i8, ptr %0, i64 44
  %4 = load i32, ptr %3, align 4, !tbaa !8
  %cond = icmp eq i32 %4, 1
  br i1 %cond, label %6, label %5, !prof !64

5:                                                ; preds = %2
  tail call void @zend_wrong_parameters_count_error(i32 noundef 1, i32 noundef 1) #21
  br label %zend_gc_try_delref.exit.thread54

6:                                                ; preds = %2
  %7 = getelementptr inbounds nuw i8, ptr %0, i64 80
  %8 = getelementptr inbounds nuw i8, ptr %0, i64 88
  %9 = load i8, ptr %8, align 8, !tbaa !8
  %10 = icmp eq i8 %9, 10
  br i1 %10, label %11, label %14, !prof !10

11:                                               ; preds = %6
  %12 = load ptr, ptr %7, align 8, !tbaa !8
  %13 = getelementptr inbounds nuw i8, ptr %12, i64 8
  br label %14

14:                                               ; preds = %6, %11
  %.1 = phi ptr [ %13, %11 ], [ %7, %6 ]
  %15 = getelementptr inbounds nuw i8, ptr %.1, i64 8
  %16 = load i8, ptr %15, align 8, !tbaa !8
  %17 = icmp eq i8 %16, 7
  br i1 %17, label %18, label %zend_gc_try_delref.exit.thread54

18:                                               ; preds = %14
  %19 = load ptr, ptr %.1, align 8, !tbaa !8
  %20 = load i32, ptr %19, align 4, !tbaa !11
  %21 = icmp ugt i32 %20, 1
  br i1 %21, label %22, label %.critedge, !prof !14

22:                                               ; preds = %18
  %23 = tail call ptr @zend_array_dup(ptr noundef nonnull %19) #21
  store ptr %23, ptr %.1, align 8, !tbaa !8
  store i32 775, ptr %15, align 8, !tbaa !8
  %24 = getelementptr inbounds nuw i8, ptr %19, i64 4
  %25 = load i32, ptr %24, align 4, !tbaa !8
  %26 = and i32 %25, 64
  %.not.i = icmp eq i32 %26, 0
  br i1 %.not.i, label %zend_gc_try_delref.exit, label %.critedge

zend_gc_try_delref.exit:                          ; preds = %22
  %27 = load i32, ptr %19, align 4, !tbaa !11
  %28 = add i32 %27, -1
  store i32 %28, ptr %19, align 4, !tbaa !11
  %.pr.pre = load i8, ptr %15, align 8, !tbaa !8
  %29 = icmp eq i8 %.pr.pre, 7
  br i1 %29, label %.critedge, label %zend_gc_try_delref.exit.thread54, !prof !15

zend_gc_try_delref.exit.thread54:                 ; preds = %14, %5, %zend_gc_try_delref.exit
  %.047.ph = phi i32 [ 9, %zend_gc_try_delref.exit ], [ 1, %5 ], [ 9, %14 ]
  %.046.ph = phi i32 [ 6, %zend_gc_try_delref.exit ], [ 0, %5 ], [ 6, %14 ]
  %.045.ph = phi ptr [ %.1, %zend_gc_try_delref.exit ], [ null, %5 ], [ %.1, %14 ]
  %.0.ph = phi i32 [ 1, %zend_gc_try_delref.exit ], [ 0, %5 ], [ 1, %14 ]
  tail call void @zend_wrong_parameter_error(i32 noundef %.047.ph, i32 noundef %.0.ph, ptr noundef null, i32 noundef %.046.ph, ptr noundef %.045.ph) #21
  br label %34

.critedge:                                        ; preds = %18, %22, %zend_gc_try_delref.exit
  %30 = tail call ptr @php_random_default_algo() #21
  %31 = tail call ptr @php_random_default_status() #21
  %32 = tail call zeroext i1 @php_array_data_shuffle(ptr %30, ptr %31, ptr noundef nonnull %.1)
  %33 = getelementptr inbounds nuw i8, ptr %1, i64 8
  store i32 3, ptr %33, align 8, !tbaa !8
  br label %34

34:                                               ; preds = %zend_gc_try_delref.exit.thread54, %.critedge
  ret void
}